target datalayout = "e-m:e-p270:32:32-p271:32:32-p272:64:64-i64:64-i128:128-f80:128-n8:16:32:64-S128"
target triple = "x86_64-pc-linux-gnu"

%"class.llvm::FoldingSetBase::Node" = type { ptr }
%"class.(anonymous namespace)::EquivalenceClass" = type { %"class.llvm::FoldingSetBase::Node", i64 }
%"class.llvm::ImmutableSet.639" = type { %"class.llvm::IntrusiveRefCntPtr.640" }
%"class.llvm::IntrusiveRefCntPtr.640" = type { ptr }
%"class.llvm::ImutAVLTree.636" = type { ptr, ptr, ptr, ptr, ptr, i32, %"struct.std::pair.637", i32, i32 }
%"struct.std::pair.637" = type { %"class.(anonymous namespace)::EquivalenceClass", %"class.llvm::ImmutableSet.639" }

; Function Attrs: mustprogress nounwind uwtable
define internal noundef ptr @_ZNK4llvm11ImutAVLTreeINS_16ImutKeyValueInfoIN12_GLOBAL__N_116EquivalenceClassENS_12ImmutableSetIS3_NS_17ImutContainerInfoIS3_EEEEEEE8getRightEv(ptr noundef nonnull align 8 dereferenceable(80) %0) #1 align 2 {
  %2 = alloca ptr, align 8
  store ptr %0, ptr %2, align 8
  %3 = load ptr, ptr %2, align 8
  %4 = getelementptr inbounds nuw %"class.llvm::ImutAVLTree.636", ptr %3, i32 0, i32 2
  %5 = load ptr, ptr %4, align 8
  ret ptr %5
}

; Function Attrs: mustprogress nounwind uwtable
define internal noundef ptr @_ZNK4llvm11ImutAVLTreeINS_16ImutKeyValueInfoIN12_GLOBAL__N_116EquivalenceClassENS_12ImmutableSetIS3_NS_17ImutContainerInfoIS3_EEEEEEE7getLeftEv(ptr noundef nonnull align 8 dereferenceable(80) %0) #1 align 2 {
  %2 = alloca ptr, align 8
  store ptr %0, ptr %2, align 8
  %3 = load ptr, ptr %2, align 8
  %4 = getelementptr inbounds nuw %"class.llvm::ImutAVLTree.636", ptr %3, i32 0, i32 1
  %5 = load ptr, ptr %4, align 8
  ret ptr %5
}

; Function Attrs: mustprogress nounwind uwtable
define internal noundef ptr @_ZNK4llvm14ImutAVLFactoryINS_16ImutKeyValueInfoIN12_GLOBAL__N_116EquivalenceClassENS_12ImmutableSetIS3_NS_17ImutContainerInfoIS3_EEEEEEE8getRightEPNS_11ImutAVLTreeIS8_EE(ptr noundef nonnull align 8 dereferenceable(80) %0, ptr noundef %1) #1 align 2 {
  %3 = alloca ptr, align 8
  %4 = alloca ptr, align 8
  store ptr %0, ptr %3, align 8
  store ptr %1, ptr %4, align 8
  %5 = load ptr, ptr %4, align 8
  %6 = call noundef ptr @_ZNK4llvm11ImutAVLTreeINS_16ImutKeyValueInfoIN12_GLOBAL__N_116EquivalenceClassENS_12ImmutableSetIS3_NS_17ImutContainerInfoIS3_EEEEEEE8getRightEv(ptr noundef nonnull align 8 dereferenceable(80) %5)
  ret ptr %6
}

; Function Attrs: mustprogress nounwind uwtable
define internal noundef ptr @_ZNK4llvm14ImutAVLFactoryINS_16ImutKeyValueInfoIN12_GLOBAL__N_116EquivalenceClassENS_12ImmutableSetIS3_NS_17ImutContainerInfoIS3_EEEEEEE7getLeftEPNS_11ImutAVLTreeIS8_EE(ptr noundef nonnull align 8 dereferenceable(80) %0, ptr noundef %1) #1 align 2 {
  %3 = alloca ptr, align 8
  %4 = alloca ptr, align 8
  store ptr %0, ptr %3, align 8
  store ptr %1, ptr %4, align 8
  %5 = load ptr, ptr %4, align 8
  %6 = call noundef ptr @_ZNK4llvm11ImutAVLTreeINS_16ImutKeyValueInfoIN12_GLOBAL__N_116EquivalenceClassENS_12ImmutableSetIS3_NS_17ImutContainerInfoIS3_EEEEEEE7getLeftEv(ptr noundef nonnull align 8 dereferenceable(80) %5)
  ret ptr %6
}

; Function Attrs: mustprogress nounwind uwtable
define internal void @_ZN4llvm11ImutAVLTreeINS_16ImutKeyValueInfoIN12_GLOBAL__N_116EquivalenceClassENS_12ImmutableSetIS3_NS_17ImutContainerInfoIS3_EEEEEEE13markImmutableEv(ptr noundef nonnull align 8 dereferenceable(80) %0) #1 align 2 {
  %2 = alloca ptr, align 8
  store ptr %0, ptr %2, align 8
  %3 = load ptr, ptr %2, align 8
  %4 = getelementptr inbounds nuw %"class.llvm::ImutAVLTree.636", ptr %3, i32 0, i32 5
  %5 = load i32, ptr %4, align 8
  %6 = and i32 %5, -268435457
  %7 = or i32 %6, 0
  store i32 %7, ptr %4, align 8
  ret void
}

; Function Attrs: mustprogress nounwind uwtable
define internal noundef zeroext i1 @_ZNK4llvm11ImutAVLTreeINS_16ImutKeyValueInfoIN12_GLOBAL__N_116EquivalenceClassENS_12ImmutableSetIS3_NS_17ImutContainerInfoIS3_EEEEEEE9isMutableEv(ptr noundef nonnull align 8 dereferenceable(80) %0) #1 align 2 {
  %2 = alloca ptr, align 8
  store ptr %0, ptr %2, align 8
  %3 = load ptr, ptr %2, align 8
  %4 = getelementptr inbounds nuw %"class.llvm::ImutAVLTree.636", ptr %3, i32 0, i32 5
  %5 = load i32, ptr %4, align 8
  %6 = lshr i32 %5, 28
  %7 = and i32 %6, 1
  %8 = trunc i32 %7 to i1
  ret i1 %8
}

; Function Attrs: mustprogress nounwind uwtable
define internal void @_ZN4llvm14ImutAVLFactoryINS_16ImutKeyValueInfoIN12_GLOBAL__N_116EquivalenceClassENS_12ImmutableSetIS3_NS_17ImutContainerInfoIS3_EEEEEEE13markImmutableEPNS_11ImutAVLTreeIS8_EE(ptr noundef nonnull align 8 dereferenceable(80) %0, ptr noundef %1) #1 align 2 {
  %3 = alloca ptr, align 8
  %4 = alloca ptr, align 8
  store ptr %0, ptr %3, align 8
  store ptr %1, ptr %4, align 8
  %5 = load ptr, ptr %3, align 8
  %6 = load ptr, ptr %4, align 8
  %7 = icmp ne ptr %6, null
  br i1 %7, label %8, label %11

8:                                                ; preds = %2
  %9 = load ptr, ptr %4, align 8
  %10 = call noundef zeroext i1 @_ZNK4llvm11ImutAVLTreeINS_16ImutKeyValueInfoIN12_GLOBAL__N_116EquivalenceClassENS_12ImmutableSetIS3_NS_17ImutContainerInfoIS3_EEEEEEE9isMutableEv(ptr noundef nonnull align 8 dereferenceable(80) %9)
  br i1 %10, label %12, label %11

11:                                               ; preds = %8, %2
  br label %18

12:                                               ; preds = %8
  %13 = load ptr, ptr %4, align 8
  call void @_ZN4llvm11ImutAVLTreeINS_16ImutKeyValueInfoIN12_GLOBAL__N_116EquivalenceClassENS_12ImmutableSetIS3_NS_17ImutContainerInfoIS3_EEEEEEE13markImmutableEv(ptr noundef nonnull align 8 dereferenceable(80) %13)
  %14 = load ptr, ptr %4, align 8
  %15 = call noundef ptr @_ZNK4llvm14ImutAVLFactoryINS_16ImutKeyValueInfoIN12_GLOBAL__N_116EquivalenceClassENS_12ImmutableSetIS3_NS_17ImutContainerInfoIS3_EEEEEEE7getLeftEPNS_11ImutAVLTreeIS8_EE(ptr noundef nonnull align 8 dereferenceable(80) %5, ptr noundef %14)
  call void @_ZN4llvm14ImutAVLFactoryINS_16ImutKeyValueInfoIN12_GLOBAL__N_116EquivalenceClassENS_12ImmutableSetIS3_NS_17ImutContainerInfoIS3_EEEEEEE13markImmutableEPNS_11ImutAVLTreeIS8_EE(ptr noundef nonnull align 8 dereferenceable(80) %5, ptr noundef %15)
  %16 = load ptr, ptr %4, align 8
  %17 = call noundef ptr @_ZNK4llvm14ImutAVLFactoryINS_16ImutKeyValueInfoIN12_GLOBAL__N_116EquivalenceClassENS_12ImmutableSetIS3_NS_17ImutContainerInfoIS3_EEEEEEE8getRightEPNS_11ImutAVLTreeIS8_EE(ptr noundef nonnull align 8 dereferenceable(80) %5, ptr noundef %16)
  call void @_ZN4llvm14ImutAVLFactoryINS_16ImutKeyValueInfoIN12_GLOBAL__N_116EquivalenceClassENS_12ImmutableSetIS3_NS_17ImutContainerInfoIS3_EEEEEEE13markImmutableEPNS_11ImutAVLTreeIS8_EE(ptr noundef nonnull align 8 dereferenceable(80) %5, ptr noundef %17)
  br label %18

18:                                               ; preds = %12, %11
  ret void
}