; Function Attrs: mustprogress nofree nosync nounwind memory(readwrite, inaccessiblemem: none) uwtable
define internal fastcc void @_ZN4llvm14ImutAVLFactoryINS_16ImutKeyValueInfoIN12_GLOBAL__N_116EquivalenceClassENS_12ImmutableSetIS3_NS_17ImutContainerInfoIS3_EEEEEEE13markImmutableEPNS_11ImutAVLTreeIS8_EE(ptr noundef %0) unnamed_addr #15 align 2 {
  %.not2 = icmp eq ptr %0, null
  br i1 %.not2, label %tailrecurse._crit_edge, label %.lr.ph

.lr.ph:                                           ; preds = %1, %tailrecurse
  %.tr3 = phi ptr [ %.val6, %tailrecurse ], [ %0, %1 ]
  %2 = getelementptr i8, ptr %.tr3, i64 40
  %.val7 = load i32, ptr %2, align 8
  %3 = and i32 %.val7, 268435456
  %.not1 = icmp eq i32 %3, 0
  br i1 %.not1, label %tailrecurse._crit_edge, label %tailrecurse

tailrecurse:                                      ; preds = %.lr.ph
  %4 = and i32 %.val7, -268435457
  store i32 %4, ptr %2, align 8
  %5 = getelementptr i8, ptr %.tr3, i64 8
  %.val = load ptr, ptr %5, align 8
  tail call fastcc void @_ZN4llvm14ImutAVLFactoryINS_16ImutKeyValueInfoIN12_GLOBAL__N_116EquivalenceClassENS_12ImmutableSetIS3_NS_17ImutContainerInfoIS3_EEEEEEE13markImmutableEPNS_11ImutAVLTreeIS8_EE(ptr noundef %.val)
  %6 = getelementptr i8, ptr %.tr3, i64 16
  %.val6 = load ptr, ptr %6, align 8
  %.not = icmp eq ptr %.val6, null
  br i1 %.not, label %tailrecurse._crit_edge, label %.lr.ph

tailrecurse._crit_edge:                           ; preds = %.lr.ph, %tailrecurse, %1
  ret void
}